; Function Attrs: mustprogress uwtable
define hidden void @_ZN4cvc58internal6theory11quantifiers4inst23InstMatchGeneratorMulti23resetInstantiationRoundEv(ptr nocapture noundef nonnull readonly align 8 dereferenceable(240) %this) unnamed_addr #3 align 2 {
entry:
  %d_children = getelementptr inbounds i8, ptr %this, i64 144
  %0 = load ptr, ptr %d_children, align 8
  %_M_finish.i = getelementptr inbounds i8, ptr %this, i64 152
  %1 = load ptr, ptr %_M_finish.i, align 8
  %cmp.i.not4 = icmp eq ptr %0, %1
  br i1 %cmp.i.not4, label %for.end, label %for.body

for.body:                                         ; preds = %entry, %for.body
  %__begin3.sroa.0.05 = phi ptr [ %incdec.ptr.i, %for.body ], [ %0, %entry ]
  %2 = load ptr, ptr %__begin3.sroa.0.05, align 8
  %vtable = load ptr, ptr %2, align 8
  %vfn = getelementptr inbounds i8, ptr %vtable, i64 16
  %3 = load ptr, ptr %vfn, align 8
  tail call void %3(ptr noundef nonnull align 8 dereferenceable(256) %2)
  %incdec.ptr.i = getelementptr inbounds i8, ptr %__begin3.sroa.0.05, i64 8
  %cmp.i.not = icmp eq ptr %incdec.ptr.i, %1
  br i1 %cmp.i.not, label %for.end, label %for.body

for.end:                                          ; preds = %for.body, %entry
  ret void
}